(lp1
(dp2
S'none'
p3
I53
sS'soccer'
p4
I5
sS'tree'
p5
I0
sS'birds'
p6
I43
sa(dp7
g3
I0
sg4
I0
sg5
I0
sg6
I0
sa(dp8
g3
I0
sg4
I2
sg5
I0
sg6
I0
sa(dp9
g3
I140
sg4
I14
sg5
I0
sg6
I117
sa(dp10
g3
I67
sg4
I15
sg5
I0
sg6
I8
sa(dp11
g3
I192
sg4
I0
sg5
I0
sg6
I46
sa(dp12
g3
I50
sg4
I5
sg5
I0
sg6
I14
sa(dp13
g3
I67
sg4
I10
sg5
I0
sg6
I35
sa(dp14
g3
I11
sg4
I2
sg5
I0
sg6
I6
sa(dp15
g3
I248
sg4
I14
sg5
I0
sg6
I212
sa(dp16
g3
I316
sg4
I124
sg5
I0
sg6
I214
sa(dp17
g3
I36
sg4
I5
sg5
I0
sg6
I32
sa(dp18
g3
I46
sg4
I2
sg5
I0
sg6
I10
sa(dp19
g3
I157
sg4
I12
sg5
I0
sg6
I105
sa(dp20
g3
I157
sg4
I7
sg5
I0
sg6
I105
sa(dp21
g3
I71
sg4
I17
sg5
I0
sg6
I34
sa(dp22
g3
I49
sg4
I2
sg5
I0
sg6
I17
sa(dp23
g3
I102
sg4
I30
sg5
I0
sg6
I39
sa(dp24
g3
I57
sg4
I10
sg5
I0
sg6
I30
sa(dp25
g3
I74
sg4
I9
sg5
I0
sg6
I31
sa(dp26
g3
I132
sg4
I20
sg5
I0
sg6
I47
sa(dp27
g3
I70
sg4
I5
sg5
I0
sg6
I20
sa(dp28
g3
I84
sg4
I5
sg5
I0
sg6
I77
sa(dp29
g3
I70
sg4
I3
sg5
I0
sg6
I26
sa(dp30
g3
I64
sg4
I9
sg5
I0
sg6
I38
sa(dp31
g3
I90
sg4
I18
sg5
I0
sg6
I38
sa(dp32
g3
I70
sg4
I21
sg5
I0
sg6
I52
sa(dp33
g3
I105
sg4
I0
sg5
I0
sg6
I22
sa(dp34
g3
I36
sg4
I1
sg5
I0
sg6
I12
sa(dp35
g3
I45
sg4
I9
sg5
I0
sg6
I14
sa(dp36
g3
I29
sg4
I2
sg5
I0
sg6
I53
sa(dp37
g3
I466
sg4
I88
sg5
I0
sg6
I160
sa(dp38
g3
I88
sg4
I11
sg5
I0
sg6
I35
sa(dp39
g3
I33
sg4
I3
sg5
I0
sg6
I8
sa(dp40
g3
I0
sg4
I0
sg5
I0
sg6
I0
sa(dp41
g3
I44
sg4
I6
sg5
I0
sg6
I23
sa(dp42
g3
I28
sg4
I20
sg5
I0
sg6
I30
sa(dp43
g3
I40
sg4
I27
sg5
I0
sg6
I7
sa(dp44
g3
I76
sg4
I1
sg5
I0
sg6
I9
sa(dp45
g3
I14
sg4
I0
sg5
I0
sg6
I3
sa(dp46
g3
I26
sg4
I14
sg5
I0
sg6
I17
sa(dp47
g3
I66
sg4
I25
sg5
I0
sg6
I32
sa(dp48
g3
I400
sg4
I28
sg5
I0
sg6
I167
sa(dp49
g3
I238
sg4
I41
sg5
I0
sg6
I108
sa(dp50
g3
I64
sg4
I16
sg5
I0
sg6
I21
sa(dp51
g3
I75
sg4
I6
sg5
I0
sg6
I37
sa(dp52
g3
I29
sg4
I26
sg5
I0
sg6
I15
sa(dp53
g3
I270
sg4
I202
sg5
I0
sg6
I153
sa(dp54
g3
I76
sg4
I5
sg5
I0
sg6
I10
sa(dp55
g3
I39
sg4
I6
sg5
I0
sg6
I18
sa(dp56
g3
I47
sg4
I15
sg5
I0
sg6
I35
sa(dp57
g3
I154
sg4
I13
sg5
I0
sg6
I147
sa(dp58
g3
I75
sg4
I11
sg5
I0
sg6
I60
sa(dp59
g3
I300
sg4
I292
sg5
I0
sg6
I122
sa(dp60
g3
I102
sg4
I4
sg5
I0
sg6
I43
sa(dp61
g3
I68
sg4
I11
sg5
I0
sg6
I45
sa(dp62
g3
I73
sg4
I3
sg5
I0
sg6
I59
sa(dp63
g3
I167
sg4
I18
sg5
I0
sg6
I64
sa(dp64
g3
I2073
sg4
I0
sg5
I0
sg6
I693
sa(dp65
g3
I314
sg4
I172
sg5
I0
sg6
I137
sa(dp66
g3
I80
sg4
I39
sg5
I0
sg6
I44
sa(dp67
g3
I96
sg4
I11
sg5
I0
sg6
I29
sa(dp68
g3
I13
sg4
I0
sg5
I0
sg6
I21
sa(dp69
g3
I54
sg4
I3
sg5
I0
sg6
I25
sa(dp70
g3
I15
sg4
I2
sg5
I0
sg6
I8
sa(dp71
g3
I25
sg4
I2
sg5
I0
sg6
I9
sa(dp72
g3
I8
sg4
I1
sg5
I0
sg6
I7
sa(dp73
g3
I76
sg4
I8
sg5
I0
sg6
I57
sa(dp74
g3
I376
sg4
I63
sg5
I0
sg6
I180
sa(dp75
g3
I63
sg4
I7
sg5
I0
sg6
I43
sa(dp76
g3
I36
sg4
I3
sg5
I0
sg6
I14
sa(dp77
g3
I3
sg4
I2
sg5
I0
sg6
I0
sa(dp78
g3
I49
sg4
I9
sg5
I0
sg6
I39
sa(dp79
g3
I71
sg4
I17
sg5
I0
sg6
I55
sa(dp80
g3
I265
sg4
I21
sg5
I0
sg6
I139
sa(dp81
g3
I99
sg4
I22
sg5
I0
sg6
I25
sa(dp82
g3
I108
sg4
I42
sg5
I0
sg6
I40
sa(dp83
g3
I37
sg4
I16
sg5
I0
sg6
I31
sa(dp84
g3
I66
sg4
I7
sg5
I0
sg6
I46
sa(dp85
g3
I100
sg4
I14
sg5
I0
sg6
I43
sa(dp86
g3
I86
sg4
I9
sg5
I0
sg6
I35
sa(dp87
g3
I382
sg4
I64
sg5
I0
sg6
I137
sa(dp88
g3
I369
sg4
I264
sg5
I0
sg6
I130
sa(dp89
g3
I40
sg4
I1
sg5
I0
sg6
I12
sa(dp90
g3
I40
sg4
I1
sg5
I0
sg6
I48
sa(dp91
g3
I350
sg4
I22
sg5
I0
sg6
I219
sa(dp92
g3
I101
sg4
I13
sg5
I0
sg6
I77
sa(dp93
g3
I75
sg4
I10
sg5
I0
sg6
I29
sa(dp94
g3
I49
sg4
I7
sg5
I0
sg6
I12
sa(dp95
g3
I130
sg4
I14
sg5
I0
sg6
I149
sa(dp96
g3
I37
sg4
I18
sg5
I0
sg6
I3
sa(dp97
g3
I53
sg4
I2
sg5
I0
sg6
I20
sa(dp98
g3
I66
sg4
I15
sg5
I0
sg6
I22
sa(dp99
g3
I16
sg4
I1
sg5
I0
sg6
I0
sa(dp100
g3
I180
sg4
I30
sg5
I0
sg6
I69
sa(dp101
g3
I16
sg4
I2
sg5
I0
sg6
I24
sa(dp102
g3
I39
sg4
I9
sg5
I0
sg6
I24
sa(dp103
g3
I68
sg4
I6
sg5
I0
sg6
I56
sa(dp104
g3
I90
sg4
I3
sg5
I0
sg6
I56
sa(dp105
g3
I85
sg4
I7
sg5
I0
sg6
I18
sa(dp106
g3
I120
sg4
I11
sg5
I0
sg6
I58
sa(dp107
g3
I162
sg4
I47
sg5
I0
sg6
I83
sa(dp108
g3
I101
sg4
I2
sg5
I0
sg6
I30
sa(dp109
g3
I74
sg4
I17
sg5
I0
sg6
I41
sa(dp110
g3
I48
sg4
I3
sg5
I0
sg6
I2
sa(dp111
g3
I61
sg4
I3
sg5
I0
sg6
I24
sa(dp112
g3
I38
sg4
I2
sg5
I0
sg6
I30
sa(dp113
g3
I82
sg4
I8
sg5
I0
sg6
I30
sa(dp114
g3
I51
sg4
I13
sg5
I0
sg6
I39
sa(dp115
g3
I46
sg4
I5
sg5
I0
sg6
I26
sa(dp116
g3
I298
sg4
I56
sg5
I0
sg6
I222
sa(dp117
g3
I53
sg4
I4
sg5
I0
sg6
I21
sa(dp118
g3
I75
sg4
I9
sg5
I0
sg6
I66
sa(dp119
g3
I319
sg4
I67
sg5
I0
sg6
I220
sa(dp120
g3
I80
sg4
I2
sg5
I0
sg6
I44
sa(dp121
g3
I123
sg4
I6
sg5
I0
sg6
I120
sa(dp122
g3
I55
sg4
I15
sg5
I0
sg6
I33
sa(dp123
g3
I48
sg4
I17
sg5
I0
sg6
I41
sa(dp124
g3
I92
sg4
I9
sg5
I0
sg6
I81
sa(dp125
g3
I69
sg4
I19
sg5
I0
sg6
I50
sa(dp126
g3
I101
sg4
I7
sg5
I0
sg6
I60
sa(dp127
g3
I22
sg4
I10
sg5
I0
sg6
I49
sa(dp128
g3
I21
sg4
I7
sg5
I0
sg6
I21
sa(dp129
g3
I103
sg4
I5
sg5
I0
sg6
I20
sa(dp130
g3
I195
sg4
I48
sg5
I0
sg6
I63
sa(dp131
g3
I82
sg4
I8
sg5
I0
sg6
I35
sa(dp132
g3
I19
sg4
I0
sg5
I0
sg6
I5
sa(dp133
g3
I168
sg4
I41
sg5
I0
sg6
I93
sa(dp134
g3
I197
sg4
I24
sg5
I0
sg6
I74
sa(dp135
g3
I109
sg4
I11
sg5
I0
sg6
I86
sa(dp136
g3
I41
sg4
I2
sg5
I0
sg6
I20
sa(dp137
g3
I76
sg4
I6
sg5
I0
sg6
I40
sa(dp138
g3
I72
sg4
I7
sg5
I0
sg6
I40
sa(dp139
g3
I40
sg4
I2
sg5
I0
sg6
I9
sa(dp140
g3
I28
sg4
I3
sg5
I0
sg6
I32
sa(dp141
g3
I368
sg4
I126
sg5
I0
sg6
I193
sa(dp142
g3
I35
sg4
I3
sg5
I0
sg6
I5
sa(dp143
g3
I35
sg4
I0
sg5
I0
sg6
I3
sa(dp144
g3
I109
sg4
I15
sg5
I0
sg6
I18
sa(dp145
g3
I49
sg4
I2
sg5
I0
sg6
I5
sa(dp146
g3
I189
sg4
I0
sg5
I0
sg6
I24
sa(dp147
g3
I15
sg4
I4
sg5
I0
sg6
I15
sa(dp148
g3
I71
sg4
I10
sg5
I0
sg6
I20
sa(dp149
g3
I49
sg4
I11
sg5
I0
sg6
I37
sa(dp150
g3
I52
sg4
I10
sg5
I0
sg6
I31
sa(dp151
g3
I15
sg4
I6
sg5
I0
sg6
I8
sa(dp152
g3
I47
sg4
I1
sg5
I0
sg6
I6
sa(dp153
g3
I28
sg4
I4
sg5
I0
sg6
I13
sa(dp154
g3
I80
sg4
I5
sg5
I0
sg6
I59
sa(dp155
g3
I51
sg4
I2
sg5
I0
sg6
I31
sa(dp156
g3
I73
sg4
I5
sg5
I0
sg6
I72
sa(dp157
g3
I112
sg4
I4
sg5
I0
sg6
I46
sa(dp158
g3
I64
sg4
I7
sg5
I0
sg6
I22
sa(dp159
g3
I67
sg4
I8
sg5
I0
sg6
I35
sa(dp160
g3
I53
sg4
I25
sg5
I0
sg6
I18
sa(dp161
g3
I34
sg4
I5
sg5
I0
sg6
I12
sa(dp162
g3
I5
sg4
I1
sg5
I0
sg6
I4
sa(dp163
g3
I387
sg4
I84
sg5
I0
sg6
I122
sa(dp164
g3
I88
sg4
I17
sg5
I0
sg6
I31
sa(dp165
g3
I37
sg4
I3
sg5
I0
sg6
I4
sa(dp166
g3
I42
sg4
I15
sg5
I0
sg6
I22
sa(dp167
g3
I83
sg4
I0
sg5
I0
sg6
I33
sa(dp168
g3
I98
sg4
I22
sg5
I0
sg6
I11
sa(dp169
g3
I44
sg4
I9
sg5
I0
sg6
I21
sa(dp170
g3
I48
sg4
I4
sg5
I0
sg6
I8
sa(dp171
g3
I268
sg4
I74
sg5
I0
sg6
I179
sa(dp172
g3
I33
sg4
I0
sg5
I0
sg6
I15
sa(dp173
g3
I67
sg4
I10
sg5
I0
sg6
I39
sa(dp174
g3
I36
sg4
I3
sg5
I0
sg6
I11
sa(dp175
g3
I28
sg4
I3
sg5
I0
sg6
I11
sa(dp176
g3
I8
sg4
I0
sg5
I0
sg6
I17
sa(dp177
g3
I381
sg4
I54
sg5
I0
sg6
I117
sa(dp178
g3
I111
sg4
I15
sg5
I0
sg6
I43
sa(dp179
g3
I23
sg4
I5
sg5
I0
sg6
I2
sa(dp180
g3
I180
sg4
I30
sg5
I0
sg6
I195
sa(dp181
g3
I116
sg4
I7
sg5
I0
sg6
I97
sa(dp182
g3
I4
sg4
I0
sg5
I0
sg6
I24
sa(dp183
g3
I86
sg4
I9
sg5
I0
sg6
I40
sa(dp184
g3
I18
sg4
I1
sg5
I0
sg6
I3
sa(dp185
g3
I116
sg4
I9
sg5
I0
sg6
I52
sa(dp186
g3
I3
sg4
I0
sg5
I0
sg6
I7
sa(dp187
g3
I376
sg4
I19
sg5
I0
sg6
I244
sa(dp188
g3
I110
sg4
I8
sg5
I0
sg6
I65
sa(dp189
g3
I67
sg4
I5
sg5
I0
sg6
I51
sa(dp190
g3
I33
sg4
I4
sg5
I0
sg6
I22
sa(dp191
g3
I39
sg4
I2
sg5
I0
sg6
I5
sa(dp192
g3
I0
sg4
I13
sg5
I0
sg6
I0
sa(dp193
g3
I30
sg4
I0
sg5
I0
sg6
I22
sa(dp194
g3
I90
sg4
I17
sg5
I0
sg6
I19
sa(dp195
g3
I39
sg4
I6
sg5
I0
sg6
I32
sa(dp196
g3
I45
sg4
I3
sg5
I0
sg6
I9
sa(dp197
g3
I81
sg4
I32
sg5
I0
sg6
I51
sa(dp198
g3
I65
sg4
I3
sg5
I0
sg6
I5
sa(dp199
g3
I48
sg4
I6
sg5
I0
sg6
I54
sa(dp200
g3
I85
sg4
I4
sg5
I0
sg6
I31
sa(dp201
g3
I903
sg4
I10
sg5
I0
sg6
I26
sa(dp202
g3
I83
sg4
I28
sg5
I0
sg6
I37
sa(dp203
g3
I85
sg4
I27
sg5
I0
sg6
I15
sa(dp204
g3
I61
sg4
I11
sg5
I0
sg6
I26
sa(dp205
g3
I56
sg4
I4
sg5
I0
sg6
I46
sa(dp206
g3
I84
sg4
I8
sg5
I0
sg6
I46
sa(dp207
g3
I62
sg4
I3
sg5
I0
sg6
I50
sa(dp208
g3
I53
sg4
I16
sg5
I0
sg6
I9
sa(dp209
g3
I220
sg4
I12
sg5
I0
sg6
I191
sa(dp210
g3
I31
sg4
I8
sg5
I0
sg6
I12
sa(dp211
g3
I64
sg4
I7
sg5
I0
sg6
I18
sa(dp212
g3
I185
sg4
I45
sg5
I0
sg6
I125
sa(dp213
g3
I30
sg4
I0
sg5
I0
sg6
I20
sa(dp214
g3
I63
sg4
I14
sg5
I0
sg6
I37
sa(dp215
g3
I42
sg4
I2
sg5
I0
sg6
I27
sa(dp216
g3
I54
sg4
I11
sg5
I0
sg6
I24
sa(dp217
g3
I81
sg4
I9
sg5
I0
sg6
I36
sa(dp218
g3
I144
sg4
I25
sg5
I0
sg6
I71
sa(dp219
g3
I111
sg4
I21
sg5
I0
sg6
I59
sa(dp220
g3
I162
sg4
I8
sg5
I0
sg6
I97
sa(dp221
g3
I19
sg4
I2
sg5
I0
sg6
I9
sa(dp222
g3
I57
sg4
I5
sg5
I0
sg6
I42
sa(dp223
g3
I42
sg4
I1
sg5
I0
sg6
I0
sa(dp224
g3
I42
sg4
I12
sg5
I0
sg6
I25
sa(dp225
g3
I66
sg4
I3
sg5
I0
sg6
I41
sa(dp226
g3
I61
sg4
I15
sg5
I0
sg6
I65
sa(dp227
g3
I114
sg4
I13
sg5
I0
sg6
I47
sa(dp228
g3
I62
sg4
I4
sg5
I0
sg6
I39
sa(dp229
g3
I181
sg4
I4
sg5
I0
sg6
I106
sa(dp230
g3
I11
sg4
I3
sg5
I0
sg6
I10
sa(dp231
g3
I120
sg4
I6
sg5
I0
sg6
I150
sa(dp232
g3
I2
sg4
I0
sg5
I0
sg6
I0
sa(dp233
g3
I59
sg4
I17
sg5
I0
sg6
I9
sa(dp234
g3
I0
sg4
I4
sg5
I0
sg6
I0
sa(dp235
g3
I3
sg4
I10
sg5
I0
sg6
I0
sa(dp236
g3
I75
sg4
I12
sg5
I0
sg6
I28
sa(dp237
g3
I38
sg4
I0
sg5
I0
sg6
I23
sa(dp238
g3
I48
sg4
I11
sg5
I0
sg6
I27
sa(dp239
g3
I31
sg4
I1
sg5
I0
sg6
I10
sa(dp240
g3
I115
sg4
I11
sg5
I0
sg6
I66
sa(dp241
g3
I33
sg4
I6
sg5
I0
sg6
I17
sa(dp242
g3
I75
sg4
I6
sg5
I0
sg6
I59
sa(dp243
g3
I126
sg4
I20
sg5
I0
sg6
I110
sa(dp244
g3
I132
sg4
I9
sg5
I0
sg6
I157
sa(dp245
g3
I154
sg4
I16
sg5
I0
sg6
I86
sa(dp246
g3
I25
sg4
I18
sg5
I0
sg6
I12
sa(dp247
g3
I18
sg4
I4
sg5
I0
sg6
I3
sa(dp248
g3
I19
sg4
I5
sg5
I0
sg6
I20
sa(dp249
g3
I300
sg4
I188
sg5
I0
sg6
I160
sa(dp250
g3
I69
sg4
I1
sg5
I0
sg6
I9
sa(dp251
g3
I34
sg4
I10
sg5
I0
sg6
I19
sa(dp252
g3
I70
sg4
I18
sg5
I0
sg6
I30
sa(dp253
g3
I331
sg4
I30
sg5
I0
sg6
I190
sa(dp254
g3
I341
sg4
I34
sg5
I0
sg6
I131
sa(dp255
g3
I73
sg4
I30
sg5
I0
sg6
I39
sa(dp256
g3
I342
sg4
I17
sg5
I0
sg6
I246
sa(dp257
g3
I41
sg4
I6
sg5
I0
sg6
I32
sa(dp258
g3
I37
sg4
I2
sg5
I0
sg6
I14
sa(dp259
g3
I29
sg4
I3
sg5
I0
sg6
I9
sa(dp260
g3
I36
sg4
I9
sg5
I0
sg6
I11
sa(dp261
g3
I31
sg4
I4
sg5
I0
sg6
I12
sa(dp262
g3
I50
sg4
I3
sg5
I0
sg6
I17
sa(dp263
g3
I78
sg4
I10
sg5
I0
sg6
I1
sa(dp264
g3
I360
sg4
I194
sg5
I0
sg6
I150
sa(dp265
g3
I131
sg4
I15
sg5
I0
sg6
I80
sa(dp266
g3
I43
sg4
I1
sg5
I0
sg6
I11
sa(dp267
g3
I63
sg4
I3
sg5
I0
sg6
I16
sa(dp268
g3
I89
sg4
I5
sg5
I0
sg6
I33
sa(dp269
g3
I117
sg4
I30
sg5
I0
sg6
I66
sa(dp270
g3
I69
sg4
I9
sg5
I0
sg6
I43
sa(dp271
g3
I2
sg4
I0
sg5
I0
sg6
I1
sa(dp272
g3
I58
sg4
I15
sg5
I0
sg6
I26
sa(dp273
g3
I162
sg4
I24
sg5
I0
sg6
I76
sa(dp274
g3
I352
sg4
I39
sg5
I0
sg6
I124
sa(dp275
g3
I86
sg4
I12
sg5
I0
sg6
I31
sa(dp276
g3
I85
sg4
I12
sg5
I0
sg6
I15
sa(dp277
g3
I70
sg4
I23
sg5
I0
sg6
I48
sa(dp278
g3
I61
sg4
I23
sg5
I0
sg6
I17
sa(dp279
g3
I51
sg4
I1
sg5
I0
sg6
I8
sa(dp280
g3
I26
sg4
I8
sg5
I0
sg6
I22
sa(dp281
g3
I45
sg4
I9
sg5
I0
sg6
I53
sa(dp282
g3
I214
sg4
I13
sg5
I0
sg6
I134
sa(dp283
g3
I212
sg4
I13
sg5
I0
sg6
I95
sa(dp284
g3
I163
sg4
I7
sg5
I0
sg6
I112
sa(dp285
g3
I7
sg4
I1
sg5
I0
sg6
I13
sa(dp286
g3
I51
sg4
I2
sg5
I0
sg6
I14
sa(dp287
g3
I69
sg4
I23
sg5
I0
sg6
I28
sa(dp288
g3
I40
sg4
I8
sg5
I0
sg6
I6
sa(dp289
g3
I58
sg4
I4
sg5
I0
sg6
I34
sa(dp290
g3
I503
sg4
I49
sg5
I0
sg6
I118
sa(dp291
g3
I77
sg4
I4
sg5
I0
sg6
I39
sa(dp292
g3
I339
sg4
I84
sg5
I0
sg6
I141
sa(dp293
g3
I63
sg4
I26
sg5
I0
sg6
I19
sa(dp294
g3
I46
sg4
I5
sg5
I0
sg6
I27
sa(dp295
g3
I80
sg4
I12
sg5
I0
sg6
I38
sa(dp296
g3
I71
sg4
I14
sg5
I0
sg6
I39
sa(dp297
g3
I80
sg4
I7
sg5
I0
sg6
I32
sa(dp298
g3
I73
sg4
I4
sg5
I0
sg6
I15
sa(dp299
g3
I278
sg4
I118
sg5
I0
sg6
I188
sa(dp300
g3
I57
sg4
I1
sg5
I0
sg6
I20
sa(dp301
g3
I234
sg4
I24
sg5
I0
sg6
I87
sa(dp302
g3
I24
sg4
I0
sg5
I0
sg6
I10
sa(dp303
g3
I116
sg4
I24
sg5
I0
sg6
I56
sa(dp304
g3
I208
sg4
I19
sg5
I0
sg6
I77
sa(dp305
g3
I54
sg4
I2
sg5
I0
sg6
I25
sa(dp306
g3
I28
sg4
I17
sg5
I0
sg6
I6
sa(dp307
g3
I197
sg4
I25
sg5
I0
sg6
I108
sa(dp308
g3
I328
sg4
I127
sg5
I0
sg6
I174
sa(dp309
g3
I62
sg4
I5
sg5
I0
sg6
I24
sa(dp310
g3
I165
sg4
I11
sg5
I0
sg6
I77
sa(dp311
g3
I62
sg4
I18
sg5
I0
sg6
I12
sa(dp312
g3
I71
sg4
I8
sg5
I0
sg6
I65
sa(dp313
g3
I135
sg4
I22
sg5
I0
sg6
I54
sa(dp314
g3
I84
sg4
I3
sg5
I0
sg6
I51
sa(dp315
g3
I69
sg4
I21
sg5
I0
sg6
I21
sa(dp316
g3
I133
sg4
I7
sg5
I0
sg6
I76
sa(dp317
g3
I54
sg4
I5
sg5
I0
sg6
I16
sa(dp318
g3
I68
sg4
I17
sg5
I0
sg6
I22
sa(dp319
g3
I107
sg4
I9
sg5
I0
sg6
I74
sa(dp320
g3
I104
sg4
I27
sg5
I0
sg6
I71
sa(dp321
g3
I163
sg4
I9
sg5
I0
sg6
I123
sa(dp322
g3
I59
sg4
I25
sg5
I0
sg6
I14
sa(dp323
g3
I353
sg4
I46
sg5
I0
sg6
I108
sa(dp324
g3
I55
sg4
I14
sg5
I0
sg6
I52
sa(dp325
g3
I35
sg4
I4
sg5
I0
sg6
I36
sa(dp326
g3
I59
sg4
I4
sg5
I0
sg6
I15
sa(dp327
g3
I44
sg4
I3
sg5
I0
sg6
I19
sa(dp328
g3
I45
sg4
I0
sg5
I0
sg6
I13
sa(dp329
g3
I158
sg4
I23
sg5
I0
sg6
I115
sa(dp330
g3
I45
sg4
I7
sg5
I0
sg6
I35
sa(dp331
g3
I72
sg4
I4
sg5
I0
sg6
I47
sa(dp332
g3
I45
sg4
I2
sg5
I0
sg6
I7
sa(dp333
g3
I107
sg4
I18
sg5
I0
sg6
I51
sa(dp334
g3
I145
sg4
I15
sg5
I0
sg6
I103
sa(dp335
g3
I43
sg4
I12
sg5
I0
sg6
I23
sa(dp336
g3
I3
sg4
I28
sg5
I0
sg6
I0
sa(dp337
g3
I107
sg4
I8
sg5
I0
sg6
I22
sa(dp338
g3
I45
sg4
I13
sg5
I0
sg6
I19
sa(dp339
g3
I53
sg4
I1
sg5
I0
sg6
I3
sa(dp340
g3
I33
sg4
I2
sg5
I0
sg6
I10
sa(dp341
g3
I51
sg4
I2
sg5
I0
sg6
I11
sa(dp342
g3
I109
sg4
I9
sg5
I0
sg6
I3
sa(dp343
g3
I51
sg4
I2
sg5
I0
sg6
I17
sa(dp344
g3
I37
sg4
I11
sg5
I0
sg6
I24
sa(dp345
g3
I3
sg4
I19
sg5
I0
sg6
I0
sa(dp346
g3
I227
sg4
I1
sg5
I0
sg6
I90
sa(dp347
g3
I65
sg4
I1
sg5
I0
sg6
I18
sa(dp348
g3
I173
sg4
I12
sg5
I0
sg6
I68
sa(dp349
g3
I33
sg4
I1
sg5
I0
sg6
I17
sa(dp350
g3
I12
sg4
I0
sg5
I0
sg6
I4
sa(dp351
g3
I84
sg4
I4
sg5
I0
sg6
I8
sa(dp352
g3
I69
sg4
I5
sg5
I0
sg6
I61
sa(dp353
g3
I94
sg4
I12
sg5
I0
sg6
I69
sa(dp354
g3
I48
sg4
I6
sg5
I0
sg6
I22
sa(dp355
g3
I230
sg4
I14
sg5
I0
sg6
I42
sa(dp356
g3
I53
sg4
I6
sg5
I0
sg6
I17
sa(dp357
g3
I175
sg4
I18
sg5
I0
sg6
I84
sa(dp358
g3
I345
sg4
I0
sg5
I0
sg6
I34
sa(dp359
g3
I102
sg4
I24
sg5
I0
sg6
I43
sa(dp360
g3
I62
sg4
I0
sg5
I0
sg6
I52
sa(dp361
g3
I132
sg4
I6
sg5
I0
sg6
I67
sa(dp362
g3
I26
sg4
I5
sg5
I0
sg6
I11
sa(dp363
g3
I56
sg4
I10
sg5
I0
sg6
I19
sa(dp364
g3
I210
sg4
I1
sg5
I0
sg6
I43
sa(dp365
g3
I588
sg4
I11
sg5
I0
sg6
I59
sa(dp366
g3
I309
sg4
I122
sg5
I0
sg6
I182
sa(dp367
g3
I83
sg4
I10
sg5
I0
sg6
I51
sa(dp368
g3
I37
sg4
I7
sg5
I0
sg6
I4
sa(dp369
g3
I266
sg4
I39
sg5
I0
sg6
I58
sa(dp370
g3
I50
sg4
I4
sg5
I0
sg6
I13
sa(dp371
g3
I26
sg4
I0
sg5
I0
sg6
I9
sa(dp372
g3
I293
sg4
I11
sg5
I0
sg6
I62
sa(dp373
g3
I45
sg4
I9
sg5
I0
sg6
I11
sa(dp374
g3
I108
sg4
I7
sg5
I0
sg6
I34
sa(dp375
g3
I101
sg4
I7
sg5
I0
sg6
I14
sa(dp376
g3
I85
sg4
I1
sg5
I0
sg6
I19
sa(dp377
g3
I49
sg4
I4
sg5
I0
sg6
I20
sa(dp378
g3
I50
sg4
I6
sg5
I0
sg6
I5
sa(dp379
g3
I216
sg4
I10
sg5
I0
sg6
I150
sa(dp380
g3
I77
sg4
I13
sg5
I0
sg6
I30
sa(dp381
g3
I78
sg4
I30
sg5
I0
sg6
I54
sa(dp382
g3
I298
sg4
I258
sg5
I0
sg6
I166
sa(dp383
g3
I61
sg4
I6
sg5
I0
sg6
I11
sa(dp384
g3
I49
sg4
I3
sg5
I0
sg6
I8
sa(dp385
g3
I36
sg4
I5
sg5
I0
sg6
I20
sa(dp386
g3
I55
sg4
I6
sg5
I0
sg6
I20
sa(dp387
g3
I41
sg4
I4
sg5
I0
sg6
I13
sa(dp388
g3
I35
sg4
I3
sg5
I0
sg6
I12
sa(dp389
g3
I249
sg4
I30
sg5
I0
sg6
I95
sa(dp390
g3
I78
sg4
I5
sg5
I0
sg6
I56
sa(dp391
g3
I101
sg4
I28
sg5
I0
sg6
I25
sa(dp392
g3
I164
sg4
I5
sg5
I0
sg6
I62
sa(dp393
g3
I32
sg4
I7
sg5
I0
sg6
I23
sa(dp394
g3
I68
sg4
I7
sg5
I0
sg6
I19
sa(dp395
g3
I36
sg4
I2
sg5
I0
sg6
I7
sa(dp396
g3
I104
sg4
I23
sg5
I0
sg6
I87
sa(dp397
g3
I107
sg4
I3
sg5
I0
sg6
I64
sa(dp398
g3
I155
sg4
I29
sg5
I0
sg6
I104
sa(dp399
g3
I8
sg4
I0
sg5
I0
sg6
I0
sa(dp400
g3
I82
sg4
I8
sg5
I0
sg6
I16
sa(dp401
g3
I89
sg4
I10
sg5
I0
sg6
I52
sa(dp402
g3
I59
sg4
I3
sg5
I0
sg6
I34
sa(dp403
g3
I67
sg4
I12
sg5
I0
sg6
I22
sa(dp404
g3
I219
sg4
I50
sg5
I0
sg6
I125
sa(dp405
g3
I21
sg4
I4
sg5
I0
sg6
I9
sa(dp406
g3
I47
sg4
I10
sg5
I0
sg6
I18
sa(dp407
g3
I27
sg4
I1
sg5
I0
sg6
I10
sa(dp408
g3
I37
sg4
I1
sg5
I0
sg6
I16
sa(dp409
g3
I38
sg4
I28
sg5
I0
sg6
I3
sa(dp410
g3
I16
sg4
I0
sg5
I0
sg6
I1
sa(dp411
g3
I51
sg4
I6
sg5
I0
sg6
I4
sa(dp412
g3
I58
sg4
I11
sg5
I0
sg6
I24
sa(dp413
g3
I100
sg4
I16
sg5
I0
sg6
I49
sa(dp414
g3
I115
sg4
I21
sg5
I0
sg6
I58
sa(dp415
g3
I31
sg4
I12
sg5
I0
sg6
I16
sa(dp416
g3
I43
sg4
I6
sg5
I0
sg6
I36
sa(dp417
g3
I83
sg4
I14
sg5
I0
sg6
I47
sa(dp418
g3
I49
sg4
I0
sg5
I0
sg6
I21
sa(dp419
g3
I40
sg4
I3
sg5
I0
sg6
I29
sa(dp420
g3
I42
sg4
I12
sg5
I0
sg6
I20
sa(dp421
g3
I73
sg4
I7
sg5
I0
sg6
I18
sa(dp422
g3
I44
sg4
I12
sg5
I0
sg6
I15
sa(dp423
g3
I69
sg4
I8
sg5
I0
sg6
I38
sa(dp424
g3
I65
sg4
I8
sg5
I0
sg6
I26
sa(dp425
g3
I49
sg4
I3
sg5
I0
sg6
I15
sa(dp426
g3
I84
sg4
I17
sg5
I0
sg6
I15
sa(dp427
g3
I28
sg4
I5
sg5
I0
sg6
I15
sa(dp428
g3
I69
sg4
I19
sg5
I0
sg6
I15
sa(dp429
g3
I37
sg4
I3
sg5
I0
sg6
I22
sa(dp430
g3
I86
sg4
I15
sg5
I0
sg6
I36
sa(dp431
g3
I4
sg4
I2
sg5
I0
sg6
I2
sa(dp432
g3
I48
sg4
I5
sg5
I0
sg6
I27
sa(dp433
g3
I43
sg4
I19
sg5
I0
sg6
I41
sa(dp434
g3
I200
sg4
I80
sg5
I0
sg6
I155
sa(dp435
g3
I250
sg4
I40
sg5
I0
sg6
I139
sa(dp436
g3
I116
sg4
I32
sg5
I0
sg6
I53
sa(dp437
g3
I35
sg4
I4
sg5
I0
sg6
I42
sa(dp438
g3
I116
sg4
I4
sg5
I0
sg6
I19
sa(dp439
g3
I96
sg4
I5
sg5
I0
sg6
I16
sa(dp440
g3
I20
sg4
I0
sg5
I0
sg6
I3
sa(dp441
g3
I52
sg4
I3
sg5
I0
sg6
I11
sa(dp442
g3
I11
sg4
I0
sg5
I0
sg6
I52
sa(dp443
g3
I106
sg4
I11
sg5
I0
sg6
I64
sa(dp444
g3
I54
sg4
I5
sg5
I0
sg6
I19
sa(dp445
g3
I77
sg4
I0
sg5
I0
sg6
I41
sa(dp446
g3
I79
sg4
I39
sg5
I0
sg6
I37
sa(dp447
g3
I118
sg4
I9
sg5
I0
sg6
I14
sa(dp448
g3
I49
sg4
I10
sg5
I0
sg6
I39
sa(dp449
g3
I70
sg4
I3
sg5
I0
sg6
I10
sa(dp450
g3
I82
sg4
I4
sg5
I0
sg6
I47
sa(dp451
g3
I72
sg4
I21
sg5
I0
sg6
I44
sa(dp452
g3
I56
sg4
I10
sg5
I0
sg6
I23
sa(dp453
g3
I53
sg4
I5
sg5
I0
sg6
I20
sa(dp454
g3
I33
sg4
I14
sg5
I0
sg6
I20
sa(dp455
g3
I35
sg4
I2
sg5
I0
sg6
I6
sa(dp456
g3
I60
sg4
I6
sg5
I0
sg6
I31
sa(dp457
g3
I132
sg4
I7
sg5
I0
sg6
I108
sa(dp458
g3
I129
sg4
I21
sg5
I0
sg6
I86
sa(dp459
g3
I66
sg4
I4
sg5
I0
sg6
I24
sa(dp460
g3
I105
sg4
I9
sg5
I0
sg6
I67
sa(dp461
g3
I77
sg4
I5
sg5
I0
sg6
I44
sa(dp462
g3
I183
sg4
I23
sg5
I0
sg6
I75
sa(dp463
g3
I55
sg4
I0
sg5
I0
sg6
I62
sa(dp464
g3
I136
sg4
I13
sg5
I0
sg6
I113
sa(dp465
g3
I99
sg4
I13
sg5
I0
sg6
I55
sa(dp466
g3
I96
sg4
I14
sg5
I0
sg6
I34
sa(dp467
g3
I55
sg4
I0
sg5
I0
sg6
I21
sa(dp468
g3
I32
sg4
I26
sg5
I0
sg6
I16
sa(dp469
g3
I39
sg4
I8
sg5
I0
sg6
I21
sa(dp470
g3
I38
sg4
I4
sg5
I0
sg6
I5
sa(dp471
g3
I51
sg4
I7
sg5
I0
sg6
I5
sa(dp472
g3
I25
sg4
I0
sg5
I0
sg6
I7
sa(dp473
g3
I270
sg4
I16
sg5
I0
sg6
I181
sa(dp474
g3
I201
sg4
I1
sg5
I0
sg6
I68
sa(dp475
g3
I61
sg4
I2
sg5
I0
sg6
I36
sa(dp476
g3
I203
sg4
I1
sg5
I0
sg6
I21
sa(dp477
g3
I140
sg4
I16
sg5
I0
sg6
I111
sa(dp478
g3
I75
sg4
I7
sg5
I0
sg6
I26
sa(dp479
g3
I65
sg4
I4
sg5
I0
sg6
I17
sa(dp480
g3
I74
sg4
I9
sg5
I0
sg6
I62
sa(dp481
g3
I55
sg4
I3
sg5
I0
sg6
I49
sa(dp482
g3
I109
sg4
I8
sg5
I0
sg6
I15
sa(dp483
g3
I314
sg4
I188
sg5
I0
sg6
I137
sa(dp484
g3
I284
sg4
I44
sg5
I0
sg6
I141
sa(dp485
g3
I85
sg4
I13
sg5
I0
sg6
I47
sa(dp486
g3
I0
sg4
I0
sg5
I0
sg6
I0
sa(dp487
g3
I0
sg4
I0
sg5
I0
sg6
I0
sa(dp488
g3
I0
sg4
I0
sg5
I0
sg6
I0
sa(dp489
g3
I0
sg4
I0
sg5
I0
sg6
I0
sa(dp490
g3
I0
sg4
I0
sg5
I0
sg6
I0
sa(dp491
g3
I0
sg4
I0
sg5
I0
sg6
I0
sa(dp492
g3
I0
sg4
I0
sg5
I0
sg6
I0
sa(dp493
g3
I0
sg4
I0
sg5
I0
sg6
I0
sa(dp494
g3
I0
sg4
I0
sg5
I0
sg6
I0
sa(dp495
g3
I0
sg4
I0
sg5
I0
sg6
I0
sa(dp496
g3
I0
sg4
I0
sg5
I0
sg6
I0
sa(dp497
g3
I0
sg4
I0
sg5
I0
sg6
I0
sa(dp498
g3
I0
sg4
I0
sg5
I0
sg6
I0
sa(dp499
g3
I0
sg4
I0
sg5
I0
sg6
I0
sa(dp500
g3
I0
sg4
I0
sg5
I0
sg6
I0
sa(dp501
g3
I0
sg4
I0
sg5
I0
sg6
I0
sa(dp502
g3
I0
sg4
I0
sg5
I0
sg6
I0
sa(dp503
g3
I0
sg4
I0
sg5
I0
sg6
I0
sa(dp504
g3
I0
sg4
I0
sg5
I0
sg6
I0
sa(dp505
g3
I0
sg4
I0
sg5
I0
sg6
I0
sa.